; Function Attrs: mustprogress nounwind uwtable
define dso_local noundef ptr @_ZN4llvm10MCStreamer25getAssociatedXDataSectionEPKNS_9MCSectionE(ptr nocapture noundef nonnull align 8 dereferenceable(288) %0, ptr noundef %1) local_unnamed_addr #0 align 2 {
  %3 = getelementptr inbounds nuw i8, ptr %0, i64 8
  %4 = load ptr, ptr %3, align 8
  %5 = getelementptr inbounds nuw i8, ptr %0, i64 272
  %6 = getelementptr inbounds nuw i8, ptr %4, i64 168
  %7 = load ptr, ptr %6, align 8
  %8 = getelementptr inbounds nuw i8, ptr %7, i64 696
  %9 = load ptr, ptr %8, align 8
  %10 = tail call fastcc noundef ptr @_ZL16getWinCFISectionRN4llvm9MCContextEPjPNS_9MCSectionEPKS3_(ptr noundef nonnull align 8 dereferenceable(2432) %4, ptr noundef nonnull %5, ptr noundef %9, ptr noundef %1)
  ret ptr %10
}